(dp0
S'engine'
p1
S'pdflatex'
p2
sS'packages'
p3
c__builtin__
set
p4
((lp5
S'url'
p6
aS'float'
p7
aS'graphicx'
p8
aS'pdfpages'
p9
atp10
Rp11
sS'files_with_guttermarks'
p12
g4
((lp13
S'/Users/Peterlinchen/Downloads/ovgu-slides/./presentation.tex'
p14
aS'presentation.tex'
p15
aS'/Users/Peterlinchen/Downloads/ovgu-slides/presentation.tex'
p16
atp17
Rp18
sS'synctex'
p19
I01
s.